; Function Attrs: inlinehint mustprogress nounwind uwtable
define internal fastcc void @_ZN12_GLOBAL__N_110smt_solver24collect_pattern_fds_procD2Ev(ptr noundef nonnull align 8 captures(address) dereferenceable(160) %0) unnamed_addr #7 align 2 personality ptr @__gxx_personality_v0 {
  %2 = getelementptr inbounds nuw i8, ptr %0, i64 8
  %3 = load ptr, ptr %2, align 8, !tbaa !297
  %4 = getelementptr inbounds nuw i8, ptr %0, i64 16
  %5 = load i32, ptr %4, align 8, !tbaa !300
  %6 = zext i32 %5 to i64
  %7 = getelementptr inbounds nuw ptr, ptr %3, i64 %6
  %.not8.i.i = icmp eq i32 %5, 0
  br i1 %.not8.i.i, label %.loopexit.i, label %.lr.ph.i.i

.lr.ph.i.i:                                       ; preds = %1, %.lr.ph.i.i
  %.09.i.i = phi ptr [ %12, %.lr.ph.i.i ], [ %3, %1 ]
  %8 = load ptr, ptr %.09.i.i, align 8, !tbaa !302
  %9 = getelementptr inbounds nuw i8, ptr %8, i64 4
  %10 = load i32, ptr %9, align 4
  %11 = and i32 %10, -65537
  store i32 %11, ptr %9, align 4
  %12 = getelementptr inbounds nuw i8, ptr %.09.i.i, i64 8
  %.not.i.i = icmp eq ptr %12, %7
  br i1 %.not.i.i, label %.loopexit.loopexit.i, label %.lr.ph.i.i

.loopexit.loopexit.i:                             ; preds = %.lr.ph.i.i
  %.pre.i = load ptr, ptr %2, align 8, !tbaa !297
  br label %.loopexit.i

.loopexit.i:                                      ; preds = %.loopexit.loopexit.i, %1
  %13 = phi ptr [ %.pre.i, %.loopexit.loopexit.i ], [ %3, %1 ]
  store i32 0, ptr %4, align 8, !tbaa !300
  %14 = getelementptr inbounds nuw i8, ptr %0, i64 24
  %.not.i.i.i.i = icmp eq ptr %13, %14
  %15 = icmp eq ptr %13, null
  %or.cond.i.i.i.i = or i1 %.not.i.i.i.i, %15
  br i1 %or.cond.i.i.i.i, label %_ZN13ast_fast_markILj1EED2Ev.exit, label %16

16:                                               ; preds = %.loopexit.i
  invoke void @_ZN6memory10deallocateEPv(ptr noundef nonnull %13)
          to label %_ZN13ast_fast_markILj1EED2Ev.exit unwind label %17

17:                                               ; preds = %16
  %18 = landingpad { ptr, i32 }
          catch ptr null
  %19 = extractvalue { ptr, i32 } %18, 0
  tail call void @__clang_call_terminate(ptr %19) #25
  unreachable

_ZN13ast_fast_markILj1EED2Ev.exit:                ; preds = %.loopexit.i, %16
  ret void
}